; Function Attrs: mustprogress nounwind uwtable
define hidden noundef ptr @_ZN8AddINode8IdentityEP8PhaseGVN(ptr noundef nonnull align 8 dereferenceable(52) %0, ptr nocapture noundef readonly %1) unnamed_addr #0 align 2 {
  %3 = getelementptr inbounds i8, ptr %0, i64 8
  %4 = load ptr, ptr %3, align 8
  %5 = getelementptr inbounds i8, ptr %4, i64 8
  %6 = load ptr, ptr %5, align 8
  %7 = load ptr, ptr %6, align 8
  %8 = load ptr, ptr %7, align 8
  %9 = tail call noundef i32 %8(ptr noundef nonnull align 8 dereferenceable(52) %6) #7
  %10 = icmp eq i32 %9, 342
  %.pre = load ptr, ptr %3, align 8
  br i1 %10, label %11, label %._crit_edge

._crit_edge:                                      ; preds = %2
  %.phi.trans.insert = getelementptr inbounds i8, ptr %.pre, i64 16
  %.pre3 = load ptr, ptr %.phi.trans.insert, align 8
  br label %24

11:                                               ; preds = %2
  %12 = getelementptr inbounds i8, ptr %.pre, i64 8
  %13 = load ptr, ptr %12, align 8
  %14 = getelementptr inbounds i8, ptr %13, i64 8
  %15 = load ptr, ptr %14, align 8
  %16 = getelementptr inbounds i8, ptr %15, i64 16
  %17 = load ptr, ptr %16, align 8
  %18 = getelementptr inbounds i8, ptr %.pre, i64 16
  %19 = load ptr, ptr %18, align 8
  %20 = icmp eq ptr %17, %19
  br i1 %20, label %21, label %24

21:                                               ; preds = %11
  %22 = getelementptr inbounds i8, ptr %15, i64 8
  %23 = load ptr, ptr %22, align 8
  br label %46

24:                                               ; preds = %._crit_edge, %11
  %25 = phi ptr [ %.pre3, %._crit_edge ], [ %19, %11 ]
  %26 = load ptr, ptr %25, align 8
  %27 = load ptr, ptr %26, align 8
  %28 = tail call noundef i32 %27(ptr noundef nonnull align 8 dereferenceable(52) %25) #7
  %29 = icmp eq i32 %28, 342
  br i1 %29, label %30, label %44

30:                                               ; preds = %24
  %31 = load ptr, ptr %3, align 8
  %32 = getelementptr inbounds i8, ptr %31, i64 16
  %33 = load ptr, ptr %32, align 8
  %34 = getelementptr inbounds i8, ptr %33, i64 8
  %35 = load ptr, ptr %34, align 8
  %36 = getelementptr inbounds i8, ptr %35, i64 16
  %37 = load ptr, ptr %36, align 8
  %38 = getelementptr inbounds i8, ptr %31, i64 8
  %39 = load ptr, ptr %38, align 8
  %40 = icmp eq ptr %37, %39
  br i1 %40, label %41, label %44

41:                                               ; preds = %30
  %42 = getelementptr inbounds i8, ptr %35, i64 8
  %43 = load ptr, ptr %42, align 8
  br label %46

44:                                               ; preds = %24, %30
  %45 = tail call noundef ptr @_ZN7AddNode8IdentityEP8PhaseGVN(ptr noundef nonnull align 8 dereferenceable(52) %0, ptr noundef %1)
  br label %46

46:                                               ; preds = %44, %41, %21
  %.0 = phi ptr [ %23, %21 ], [ %43, %41 ], [ %45, %44 ]
  ret ptr %.0
}